target datalayout = "e-m:e-p270:32:32-p271:32:32-p272:64:64-i64:64-i128:128-f80:128-n8:16:32:64-S128"
target triple = "x86_64-pc-linux-gnu"

%struct._object = type { %union.anon, ptr }
%union.anon = type { i64 }
%struct.rlimit = type { i64, i64 }

@_Py_NoneStruct = external global %struct._object, align 8
@.str.67 = private unnamed_addr constant [12 x i8] c"|i:_sigsegv\00", align 1

; Function Attrs: nounwind uwtable
define internal void @faulthandler_suppress_crash_report() #0 {
  %1 = alloca %struct.rlimit, align 8
  call void @llvm.lifetime.start.p0(i64 16, ptr %1) #14
  %2 = call i32 @getrlimit64(i32 noundef 4, ptr noundef %1) #14
  %3 = icmp eq i32 %2, 0
  br i1 %3, label %4, label %7

4:                                                ; preds = %0
  %5 = getelementptr inbounds nuw %struct.rlimit, ptr %1, i32 0, i32 0
  store i64 0, ptr %5, align 8, !tbaa !243
  %6 = call i32 @setrlimit64(i32 noundef 4, ptr noundef %1) #14
  br label %7

7:                                                ; preds = %4, %0
  call void @llvm.lifetime.end.p0(i64 16, ptr %1) #14
  ret void
}

; Function Attrs: nounwind uwtable
define internal void @faulthandler_raise_sigsegv() #0 {
  call void @faulthandler_suppress_crash_report()
  %1 = call i32 @raise(i32 noundef 11) #14
  ret void
}

; Function Attrs: nounwind uwtable
define internal ptr @faulthandler_sigsegv(ptr noundef %0, ptr noundef %1) #0 {
  %3 = alloca ptr, align 8
  %4 = alloca ptr, align 8
  %5 = alloca ptr, align 8
  %6 = alloca i32, align 4
  %7 = alloca i32, align 4
  %8 = alloca ptr, align 8
  store ptr %0, ptr %4, align 8, !tbaa !183
  store ptr %1, ptr %5, align 8, !tbaa !183
  call void @llvm.lifetime.start.p0(i64 4, ptr %6) #14
  store i32 0, ptr %6, align 4, !tbaa !4
  %9 = load ptr, ptr %5, align 8, !tbaa !183
  %10 = call i32 (ptr, ptr, ...) @PyArg_ParseTuple(ptr noundef %9, ptr noundef @.str.67, ptr noundef %6)
  %11 = icmp ne i32 %10, 0
  br i1 %11, label %13, label %12

12:                                               ; preds = %2
  store ptr null, ptr %3, align 8
  store i32 1, ptr %7, align 4
  br label %21

13:                                               ; preds = %2
  %14 = load i32, ptr %6, align 4, !tbaa !4
  %15 = icmp ne i32 %14, 0
  br i1 %15, label %16, label %19

16:                                               ; preds = %13
  call void @llvm.lifetime.start.p0(i64 8, ptr %8) #14
  %17 = call ptr @PyEval_SaveThread()
  store ptr %17, ptr %8, align 8, !tbaa !205
  call void @faulthandler_raise_sigsegv()
  %18 = load ptr, ptr %8, align 8, !tbaa !205
  call void @PyEval_RestoreThread(ptr noundef %18)
  call void @llvm.lifetime.end.p0(i64 8, ptr %8) #14
  br label %20

19:                                               ; preds = %13
  call void @faulthandler_raise_sigsegv()
  br label %20

20:                                               ; preds = %19, %16
  store ptr @_Py_NoneStruct, ptr %3, align 8
  store i32 1, ptr %7, align 4
  br label %21

21:                                               ; preds = %20, %12
  call void @llvm.lifetime.end.p0(i64 4, ptr %6) #14
  %22 = load ptr, ptr %3, align 8
  ret ptr %22
}