; Function Attrs: nounwind uwtable
define internal noundef ptr @faulthandler_sigsegv(ptr readnone captures(none) %0, ptr noundef %1) #0 {
  %3 = alloca %struct.rlimit, align 8
  %4 = alloca %struct.rlimit, align 8
  %5 = alloca i32, align 4
  call void @llvm.lifetime.start.p0(i64 4, ptr nonnull %5) #16
  store i32 0, ptr %5, align 4, !tbaa !202
  %6 = call i32 (ptr, ptr, ...) @PyArg_ParseTuple(ptr noundef %1, ptr noundef nonnull @.str.67, ptr noundef nonnull %5) #16
  %.not = icmp eq i32 %6, 0
  br i1 %.not, label %22, label %7

7:                                                ; preds = %2
  %8 = load i32, ptr %5, align 4, !tbaa !202
  %.not3 = icmp eq i32 %8, 0
  br i1 %.not3, label %16, label %9

9:                                                ; preds = %7
  %10 = call ptr @PyEval_SaveThread() #16
  call void @llvm.lifetime.start.p0(i64 16, ptr nonnull %4) #16
  %11 = call i32 @getrlimit64(i32 noundef 4, ptr noundef nonnull %4) #16
  %12 = icmp eq i32 %11, 0
  br i1 %12, label %13, label %faulthandler_raise_sigsegv.exit

13:                                               ; preds = %9
  store i64 0, ptr %4, align 8, !tbaa !224
  %14 = call i32 @setrlimit64(i32 noundef 4, ptr noundef nonnull %4) #16
  br label %faulthandler_raise_sigsegv.exit

faulthandler_raise_sigsegv.exit:                  ; preds = %9, %13
  call void @llvm.lifetime.end.p0(i64 16, ptr nonnull %4) #16
  %15 = call i32 @raise(i32 noundef 11) #16
  call void @PyEval_RestoreThread(ptr noundef %10) #16
  br label %22

16:                                               ; preds = %7
  call void @llvm.lifetime.start.p0(i64 16, ptr nonnull %3) #16
  %17 = call i32 @getrlimit64(i32 noundef 4, ptr noundef nonnull %3) #16
  %18 = icmp eq i32 %17, 0
  br i1 %18, label %19, label %faulthandler_raise_sigsegv.exit4

19:                                               ; preds = %16
  store i64 0, ptr %3, align 8, !tbaa !224
  %20 = call i32 @setrlimit64(i32 noundef 4, ptr noundef nonnull %3) #16
  br label %faulthandler_raise_sigsegv.exit4

faulthandler_raise_sigsegv.exit4:                 ; preds = %16, %19
  call void @llvm.lifetime.end.p0(i64 16, ptr nonnull %3) #16
  %21 = call i32 @raise(i32 noundef 11) #16
  br label %22

22:                                               ; preds = %faulthandler_raise_sigsegv.exit, %faulthandler_raise_sigsegv.exit4, %2
  %.0 = phi ptr [ null, %2 ], [ @_Py_NoneStruct, %faulthandler_raise_sigsegv.exit4 ], [ @_Py_NoneStruct, %faulthandler_raise_sigsegv.exit ]
  call void @llvm.lifetime.end.p0(i64 4, ptr nonnull %5) #16
  ret ptr %.0
}